(iDataDB
DatadbGenerator
p0
(dp1
S'totaltime'
p2
F15.22599983215332
sS'versions'
p3
(dp4
S'modules'
p5
(dp6
S'python'
p7
S'2.7.10 (default, May 23 2015, 09:40:32) [MSC v.1500 32 bit (Intel)]'
p8
sS'visa'
p9
S'1.6.2'
p10
sS'mat'
p11
S'1.4.3'
p12
sS'wx'
p13
S'3.0.2.0'
p14
ssS'rawdata'
p15
S'1.0.0'
p16
sS'software'
p17
g16
ssS'testinglog'
p18
V
p19
sS'iFreq'
p20
(lp21
F5000.0
aF5010.0
aF5020.0
aF5030.0
aF5040.0
aF5050.0
aF5060.0
aF5070.0
aF5080.0
aF5090.0
aF5100.0
aF5110.0
aF5120.0
aF5130.0
aF5140.0
aF5150.0
aF5160.0
aF5170.0
aF5180.0
aF5190.0
aF5200.0
aF5210.0
aF5220.0
aF5230.0
aF5240.0
aF5250.0
aF5260.0
aF5270.0
aF5280.0
aF5290.0
aF5300.0
aF5310.0
aF5320.0
aF5330.0
aF5340.0
aF5350.0
aF5360.0
aF5370.0
aF5380.0
aF5390.0
aF5400.0
aF5410.0
aF5420.0
aF5430.0
aF5440.0
aF5450.0
aF5460.0
aF5470.0
aF5480.0
aF5490.0
aF5500.0
aF5510.0
aF5520.0
aF5530.0
aF5540.0
aF5550.0
aF5560.0
aF5570.0
aF5580.0
aF5590.0
aF5600.0
aF5610.0
aF5620.0
aF5630.0
aF5640.0
aF5650.0
aF5660.0
aF5670.0
aF5680.0
aF5690.0
aF5700.0
aF5710.0
aF5720.0
aF5730.0
aF5740.0
aF5750.0
aF5760.0
aF5770.0
aF5780.0
aF5790.0
aF5800.0
aF5810.0
aF5820.0
aF5830.0
aF5840.0
aF5850.0
aF5860.0
aF5870.0
aF5880.0
aF5890.0
aF5900.0
aF5910.0
aF5920.0
aF5930.0
aF5940.0
aF5950.0
aF5960.0
aF5970.0
aF5980.0
aF5990.0
aF6000.0
asS'testname'
p22
V5GHz Antenna Input RL
p23
sS'comments'
p24
VTerminated with a short.
p25
sS'filename'
p26
V2015.09.04_17h_19m38_5GHz Antenna Input RL
p27
sS'equipment'
p28
(dp29
S'vna1'
p30
S'vna111(17)'
p31
ssS'iPara'
p32
(dp33
S'111'
p34
(dp35
S'_Correction'
p36
S''
p37
sS'eqp'
p38
(lp39
S'vna'
p40
asS'axes'
p41
(lp42
S'Spara (dB)'
p43
aS'Frequency (MHz)'
p44
asS'para'
p45
(lp46
S'_Spara'
p47
asS'value'
p48
(lp49
VS11
p50
asssS'stoptime'
p51
S'17:19:38   09/04/2015'
p52
sS'test_tagid'
p53
I1
sS'meaID'
p54
I111
sS'starttime'
p55
S'17:19:23   09/04/2015'
p56
sS'iEqpPara'
p57
(dp58
S'spe'
p59
(dp60
S'eqpname'
p61
NsS'nod'
p62
NsS'eqpno'
p63
NsS'_GPIB'
p64
NssS'vna'
p65
(dp66
S'_PWR'
p67
(lp68
I0
aI0
asg62
NsS'_IFB'
p69
I100
sS'_NOP'
p70
I2
sg61
S'E507X ENA'
p71
sg63
I111
sg64
I17
ssS'pos'
p72
(dp73
g61
Nsg62
Nsg63
Nsg64
(lp74
NaNaNasssS'meatype'
p75
S'111.  Frequency Sweep'
p76
sS'meacount'
p77
I0
sS'meatitle'
p78
V1. Antenna Input RL
p79
sS'data'
p80
(dp81
S'y'
p82
(lp83
F-0.732023594309
aF-0.697339676875
aF-0.67237834575
aF-0.656691891483
aF-0.650987844393
aF-0.652710522651
aF-0.654572278182
aF-0.664814125214
aF-0.68319846127
aF-0.706631907868
aF-0.7330020386
aF-0.757620619144
aF-0.786288100079
aF-0.817989478944
aF-0.850668403729
aF-0.882498905651
aF-0.911109954121
aF-0.938535278467
aF-0.962525875824
aF-0.980768062949
aF-0.991489719627
aF-0.998663554177
aF-0.998579539799
aF-0.991645452356
aF-0.979084493492
aF-0.963358012067
aF-0.941700892409
aF-0.917496498322
aF-0.891766923618
aF-0.866590910651
aF-0.843586444977
aF-0.817291078957
aF-0.795377484577
aF-0.77842537916
aF-0.766072841644
aF-0.758042408586
aF-0.751775604558
aF-0.749615020719
aF-0.750491065091
aF-0.754484206664
aF-0.7612535305
aF-0.770620040068
aF-0.78267751756
aF-0.797477183999
aF-0.814894178069
aF-0.834610790636
aF-0.855778517391
aF-0.879469453677
aF-0.905946302958
aF-0.934568130823
aF-0.964274867114
aF-0.992252140252
aF-1.01784892939
aF-1.03862984611
aF-1.05069191511
aF-1.05322988226
aF-1.04924112714
aF-1.03521659765
aF-1.01227024915
aF-0.981930159773
aF-0.946484151214
aF-0.91328526781
aF-0.87844859918
aF-0.845220354153
aF-0.81449587249
aF-0.787504206807
aF-0.764993595912
aF-0.747366735636
aF-0.73445686755
aF-0.726911289993
aF-0.725057753451
aF-0.72962125371
aF-0.740366600163
aF-0.757340343628
aF-0.780430122449
aF-0.808873695187
aF-0.845922783842
aF-0.886718931501
aF-0.930599625868
aF-0.975703087582
aF-1.02018070469
aF-1.06369601198
aF-1.10154513461
aF-1.13112198914
aF-1.15015761766
aF-1.15683207346
aF-1.15010826484
aF-1.12863209715
aF-1.09556547403
aF-1.05229060932
aF-1.00248081047
aF-0.949656176159
aF-0.897099236302
aF-0.84780308626
aF-0.804318986958
aF-0.767957527755
aF-0.741305392738
aF-0.72429532156
aF-0.716254412096
aF-0.716084973733
aF-0.723046969422
asS'x'
p84
(lp85
F5000.0
aF5010.0
aF5020.0
aF5030.0
aF5040.0
aF5050.0
aF5060.0
aF5070.0
aF5080.0
aF5090.0
aF5100.0
aF5110.0
aF5120.0
aF5130.0
aF5140.0
aF5150.0
aF5160.0
aF5170.0
aF5180.0
aF5190.0
aF5200.0
aF5210.0
aF5220.0
aF5230.0
aF5240.0
aF5250.0
aF5260.0
aF5270.0
aF5280.0
aF5290.0
aF5300.0
aF5310.0
aF5320.0
aF5330.0
aF5340.0
aF5350.0
aF5360.0
aF5370.0
aF5380.0
aF5390.0
aF5400.0
aF5410.0
aF5420.0
aF5430.0
aF5440.0
aF5450.0
aF5460.0
aF5470.0
aF5480.0
aF5490.0
aF5500.0
aF5510.0
aF5520.0
aF5530.0
aF5540.0
aF5550.0
aF5560.0
aF5570.0
aF5580.0
aF5590.0
aF5600.0
aF5610.0
aF5620.0
aF5630.0
aF5640.0
aF5650.0
aF5660.0
aF5670.0
aF5680.0
aF5690.0
aF5700.0
aF5710.0
aF5720.0
aF5730.0
aF5740.0
aF5750.0
aF5760.0
aF5770.0
aF5780.0
aF5790.0
aF5800.0
aF5810.0
aF5820.0
aF5830.0
aF5840.0
aF5850.0
aF5860.0
aF5870.0
aF5880.0
aF5890.0
aF5900.0
aF5910.0
aF5920.0
aF5930.0
aF5940.0
aF5950.0
aF5960.0
aF5970.0
aF5980.0
aF5990.0
aF6000.0
assS'operatorname'
p86
g19
sb.