(iDataDB
DatadbGenerator
p0
(dp1
S'totaltime'
p2
F20.707000017166138
sS'versions'
p3
(dp4
S'modules'
p5
(dp6
S'python'
p7
S'2.7.10 (default, May 23 2015, 09:40:32) [MSC v.1500 32 bit (Intel)]'
p8
sS'visa'
p9
S'1.6.2'
p10
sS'mat'
p11
S'1.4.3'
p12
sS'wx'
p13
S'3.0.2.0'
p14
ssS'rawdata'
p15
S'1.0.0'
p16
sS'software'
p17
g16
ssS'testinglog'
p18
V
p19
sS'iFreq'
p20
(lp21
F5000.0
aF5010.0
aF5020.0
aF5030.0
aF5040.0
aF5050.0
aF5060.0
aF5070.0
aF5080.0
aF5090.0
aF5100.0
aF5110.0
aF5120.0
aF5130.0
aF5140.0
aF5150.0
aF5160.0
aF5170.0
aF5180.0
aF5190.0
aF5200.0
aF5210.0
aF5220.0
aF5230.0
aF5240.0
aF5250.0
aF5260.0
aF5270.0
aF5280.0
aF5290.0
aF5300.0
aF5310.0
aF5320.0
aF5330.0
aF5340.0
aF5350.0
aF5360.0
aF5370.0
aF5380.0
aF5390.0
aF5400.0
aF5410.0
aF5420.0
aF5430.0
aF5440.0
aF5450.0
aF5460.0
aF5470.0
aF5480.0
aF5490.0
aF5500.0
aF5510.0
aF5520.0
aF5530.0
aF5540.0
aF5550.0
aF5560.0
aF5570.0
aF5580.0
aF5590.0
aF5600.0
aF5610.0
aF5620.0
aF5630.0
aF5640.0
aF5650.0
aF5660.0
aF5670.0
aF5680.0
aF5690.0
aF5700.0
aF5710.0
aF5720.0
aF5730.0
aF5740.0
aF5750.0
aF5760.0
aF5770.0
aF5780.0
aF5790.0
aF5800.0
aF5810.0
aF5820.0
aF5830.0
aF5840.0
aF5850.0
aF5860.0
aF5870.0
aF5880.0
aF5890.0
aF5900.0
aF5910.0
aF5920.0
aF5930.0
aF5940.0
aF5950.0
aF5960.0
aF5970.0
aF5980.0
aF5990.0
aF6000.0
asS'testname'
p22
V5GHz Antenna Input RL
p23
sS'comments'
p24
VConnected with the AUT.
p25
sS'filename'
p26
V2015.09.04_17h_23m08_5GHz Antenna Input RL
p27
sS'equipment'
p28
(dp29
S'vna1'
p30
S'vna111(17)'
p31
ssS'iPara'
p32
(dp33
S'111'
p34
(dp35
S'_Correction'
p36
VC:\u005ccygwin64\u005chome\u005cy_tang\u005cproject\u005cpython\u005cantART\u005crawdata\u005c2015.09.04_17h_19m38_5GHz Antenna Input RL.pkl
p37
sS'eqp'
p38
(lp39
S'vna'
p40
asS'axes'
p41
(lp42
S'Spara (dB)'
p43
aS'Frequency (MHz)'
p44
asS'para'
p45
(lp46
S'_Spara'
p47
asS'value'
p48
(lp49
VS11
p50
asssS'stoptime'
p51
S'17:23:08   09/04/2015'
p52
sS'test_tagid'
p53
I2
sS'meaID'
p54
I111
sS'starttime'
p55
S'17:22:47   09/04/2015'
p56
sS'iEqpPara'
p57
(dp58
S'spe'
p59
(dp60
S'eqpname'
p61
NsS'nod'
p62
NsS'eqpno'
p63
NsS'_GPIB'
p64
NssS'vna'
p65
(dp66
S'_PWR'
p67
(lp68
I0
aI0
asg62
NsS'_IFB'
p69
I100
sS'_NOP'
p70
I2
sg61
S'E507X ENA'
p71
sg63
I111
sg64
I17
ssS'pos'
p72
(dp73
g61
Nsg62
Nsg63
Nsg64
(lp74
NaNaNasssS'meatype'
p75
S'111.  Frequency Sweep'
p76
sS'meacount'
p77
I0
sS'meatitle'
p78
V1. Antenna Input RL
p79
sS'data'
p80
(dp81
S'y'
p82
(lp83
F-13.894655768890999
aF-15.123176815925
aF-16.934234199349998
aF-19.782841978817
aF-24.843173503606998
aF-36.326843049549
aF-28.151945259118
aF-21.333052731486
aF-17.813262600530003
aF-15.490209851232
aF-13.859236358999999
aF-12.685811384156
aF-11.817937830421
aF-11.175778242656
aF-10.851372513871
aF-10.705706524449
aF-10.684081131679
aF-10.814995416633
aF-11.177826662076
aF-11.728287277651
aF-12.399620667773
aF-13.192869552123
aF-13.983261668001001
aF-14.691246824344
aF-15.270978051708
aF-15.457435086433
aF-15.137723566291001
aF-14.591586092978
aF-13.879611618382
aF-13.147299043449
aF-12.477455851823
aF-11.892241691443
aF-11.525991249723
aF-11.27044263294
aF-11.030702949656
aF-10.971112453314
aF-11.068657895942
aF-11.357664306081
aF-11.787449177909
aF-12.407981719236
aF-13.288555824200001
aF-14.537475797232
aF-16.13428479524
aF-18.222879604301
aF-21.475974871531
aF-26.664266430464
aF-36.010284266709
aF-27.989438623123
aF-22.540663161542
aF-19.330498174377002
aF-17.328590841286
aF-16.022371154648003
aF-15.156454053509998
aF-14.70919712099
aF-14.592919362489999
aF-14.79763582294
aF-15.402231692560001
aF-16.262858059950002
aF-17.26159369955
aF-18.105106581627
aF-18.348373979786
aF-17.60218443959
aF-16.22375097762
aF-14.618963166547001
aF-13.073668890310001
aF-11.750002742093
aF-10.768719650688
aF-10.031885224664
aF-9.475705327350001
aF-9.046010932227
aF-8.713104223609
aF-8.54469451614
aF-8.513683353837
aF-8.581891277702
aF-8.796880931821
aF-9.167105546393
aF-9.724396371257999
aF-10.505676567098998
aF-11.466559191932
aF-12.580474070918001
aF-13.94891754631
aF-15.584366233219999
aF-17.433766007590002
aF-18.98743907636
aF-19.70223011954
aF-19.044756764840002
aF-17.61885032616
aF-16.27691278615
aF-15.336117381769999
aF-14.83398985628
aF-14.630341003829999
aF-14.788995950541
aF-15.343528257398
aF-16.36504520994
aF-17.908770053942003
aF-19.619459320744998
aF-22.045858436062
aF-25.98516695734
aF-30.653566031804
aF-26.422892130967
aF-21.521227400978
asS'x'
p84
(lp85
F5000.0
aF5010.0
aF5020.0
aF5030.0
aF5040.0
aF5050.0
aF5060.0
aF5070.0
aF5080.0
aF5090.0
aF5100.0
aF5110.0
aF5120.0
aF5130.0
aF5140.0
aF5150.0
aF5160.0
aF5170.0
aF5180.0
aF5190.0
aF5200.0
aF5210.0
aF5220.0
aF5230.0
aF5240.0
aF5250.0
aF5260.0
aF5270.0
aF5280.0
aF5290.0
aF5300.0
aF5310.0
aF5320.0
aF5330.0
aF5340.0
aF5350.0
aF5360.0
aF5370.0
aF5380.0
aF5390.0
aF5400.0
aF5410.0
aF5420.0
aF5430.0
aF5440.0
aF5450.0
aF5460.0
aF5470.0
aF5480.0
aF5490.0
aF5500.0
aF5510.0
aF5520.0
aF5530.0
aF5540.0
aF5550.0
aF5560.0
aF5570.0
aF5580.0
aF5590.0
aF5600.0
aF5610.0
aF5620.0
aF5630.0
aF5640.0
aF5650.0
aF5660.0
aF5670.0
aF5680.0
aF5690.0
aF5700.0
aF5710.0
aF5720.0
aF5730.0
aF5740.0
aF5750.0
aF5760.0
aF5770.0
aF5780.0
aF5790.0
aF5800.0
aF5810.0
aF5820.0
aF5830.0
aF5840.0
aF5850.0
aF5860.0
aF5870.0
aF5880.0
aF5890.0
aF5900.0
aF5910.0
aF5920.0
aF5930.0
aF5940.0
aF5950.0
aF5960.0
aF5970.0
aF5980.0
aF5990.0
aF6000.0
assS'operatorname'
p86
g19
sb.